target datalayout = "e-m:e-p270:32:32-p271:32:32-p272:64:64-i64:64-i128:128-f80:128-n8:16:32:64-S128"
target triple = "x86_64-pc-linux-gnu"

%"class.LIEF::PE::Factory" = type { %"class.std::vector", %"class.std::vector.0", %"class.std::unique_ptr" }
%"class.std::vector" = type { %"struct.std::_Vector_base" }
%"struct.std::_Vector_base" = type { %"struct.std::_Vector_base<std::unique_ptr<LIEF::PE::Section>, std::allocator<std::unique_ptr<LIEF::PE::Section>>>::_Vector_impl" }
%"struct.std::_Vector_base<std::unique_ptr<LIEF::PE::Section>, std::allocator<std::unique_ptr<LIEF::PE::Section>>>::_Vector_impl" = type { %"struct.std::_Vector_base<std::unique_ptr<LIEF::PE::Section>, std::allocator<std::unique_ptr<LIEF::PE::Section>>>::_Vector_impl_data" }
%"struct.std::_Vector_base<std::unique_ptr<LIEF::PE::Section>, std::allocator<std::unique_ptr<LIEF::PE::Section>>>::_Vector_impl_data" = type { ptr, ptr, ptr }
%"class.std::vector.0" = type { %"struct.std::_Vector_base.1" }
%"struct.std::_Vector_base.1" = type { %"struct.std::_Vector_base<LIEF::PE::Import, std::allocator<LIEF::PE::Import>>::_Vector_impl" }
%"struct.std::_Vector_base<LIEF::PE::Import, std::allocator<LIEF::PE::Import>>::_Vector_impl" = type { %"struct.std::_Vector_base<LIEF::PE::Import, std::allocator<LIEF::PE::Import>>::_Vector_impl_data" }
%"struct.std::_Vector_base<LIEF::PE::Import, std::allocator<LIEF::PE::Import>>::_Vector_impl_data" = type { ptr, ptr, ptr }
%"class.std::unique_ptr" = type { %"struct.std::__uniq_ptr_data" }
%"struct.std::__uniq_ptr_data" = type { %"class.std::__uniq_ptr_impl" }
%"class.std::__uniq_ptr_impl" = type { %"class.std::tuple" }
%"class.std::tuple" = type { %"struct.std::_Tuple_impl" }
%"struct.std::_Tuple_impl" = type { %"struct.std::_Head_base.6" }
%"struct.std::_Head_base.6" = type { ptr }
%"class.LIEF::PE::DosHeader" = type { %"class.LIEF::Object", i16, i16, i16, i16, i16, i16, i16, i16, i16, i16, i16, i16, i16, i16, %"struct.std::array", i16, i16, %"struct.std::array.28", i32 }
%"class.LIEF::Object" = type { ptr }
%"struct.std::array" = type { [4 x i16] }
%"struct.std::array.28" = type { [10 x i16] }
%"class.LIEF::PE::Header" = type { %"class.LIEF::Object", %"struct.std::array.29", i32, i16, i32, i32, i32, i16, i32 }
%"struct.std::array.29" = type { [4 x i8] }
%"class.LIEF::PE::OptionalHeader" = type { %"class.LIEF::Object", i16, i8, i8, i32, i32, i32, i32, i32, i32, i64, i32, i32, i16, i16, i16, i16, i16, i16, i32, i32, i32, i32, i64, i32, i64, i64, i64, i64, i32, i32 }
%"class.LIEF::PE::Binary" = type { %"class.LIEF::Binary", i16, %"class.LIEF::PE::DosHeader", %"class.LIEF::PE::Header", %"class.LIEF::PE::OptionalHeader", i32, %"class.std::vector.30", %"class.std::vector", %"class.std::vector.35", %"class.std::vector.40", %"class.std::vector.45", %"class.std::vector.50", %"class.std::vector.0", %"class.std::vector.55", %"class.std::vector.60", %"class.std::vector.65", i64, %"class.std::vector.70", %"class.std::vector.70", %"class.std::vector.70", %"class.std::unique_ptr.75", %"class.std::unique_ptr.83", %"class.std::unique_ptr.91", %"class.std::unique_ptr.99", %"class.std::unique_ptr.107", %"class.std::unique_ptr", %"struct.LIEF::PE::Binary::sizing_info_t" }
%"class.LIEF::Binary" = type { %"class.LIEF::Object", i32, %"class.std::unique_ptr.15", %"class.std::unordered_map", i64 }
%"class.std::unique_ptr.15" = type { %"struct.std::__uniq_ptr_data.16" }
%"struct.std::__uniq_ptr_data.16" = type { %"class.std::__uniq_ptr_impl.17" }
%"class.std::__uniq_ptr_impl.17" = type { %"class.std::tuple.18" }
%"class.std::tuple.18" = type { %"struct.std::_Tuple_impl.19" }
%"struct.std::_Tuple_impl.19" = type { %"struct.std::_Head_base.22" }
%"struct.std::_Head_base.22" = type { ptr }
%"class.std::unordered_map" = type { %"class.std::_Hashtable" }
%"class.std::_Hashtable" = type { ptr, i64, %"struct.std::__detail::_Hash_node_base", i64, %"struct.std::__detail::_Prime_rehash_policy", ptr }
%"struct.std::__detail::_Hash_node_base" = type { ptr }
%"struct.std::__detail::_Prime_rehash_policy" = type { float, i64 }
%"class.std::vector.30" = type { %"struct.std::_Vector_base.31" }
%"struct.std::_Vector_base.31" = type { %"struct.std::_Vector_base<LIEF::PE::Signature, std::allocator<LIEF::PE::Signature>>::_Vector_impl" }
%"struct.std::_Vector_base<LIEF::PE::Signature, std::allocator<LIEF::PE::Signature>>::_Vector_impl" = type { %"struct.std::_Vector_base<LIEF::PE::Signature, std::allocator<LIEF::PE::Signature>>::_Vector_impl_data" }
%"struct.std::_Vector_base<LIEF::PE::Signature, std::allocator<LIEF::PE::Signature>>::_Vector_impl_data" = type { ptr, ptr, ptr }
%"class.std::vector.35" = type { %"struct.std::_Vector_base.36" }
%"struct.std::_Vector_base.36" = type { %"struct.std::_Vector_base<std::unique_ptr<LIEF::PE::DataDirectory>, std::allocator<std::unique_ptr<LIEF::PE::DataDirectory>>>::_Vector_impl" }
%"struct.std::_Vector_base<std::unique_ptr<LIEF::PE::DataDirectory>, std::allocator<std::unique_ptr<LIEF::PE::DataDirectory>>>::_Vector_impl" = type { %"struct.std::_Vector_base<std::unique_ptr<LIEF::PE::DataDirectory>, std::allocator<std::unique_ptr<LIEF::PE::DataDirectory>>>::_Vector_impl_data" }
%"struct.std::_Vector_base<std::unique_ptr<LIEF::PE::DataDirectory>, std::allocator<std::unique_ptr<LIEF::PE::DataDirectory>>>::_Vector_impl_data" = type { ptr, ptr, ptr }
%"class.std::vector.40" = type { %"struct.std::_Vector_base.41" }
%"struct.std::_Vector_base.41" = type { %"struct.std::_Vector_base<std::unique_ptr<LIEF::PE::Symbol>, std::allocator<std::unique_ptr<LIEF::PE::Symbol>>>::_Vector_impl" }
%"struct.std::_Vector_base<std::unique_ptr<LIEF::PE::Symbol>, std::allocator<std::unique_ptr<LIEF::PE::Symbol>>>::_Vector_impl" = type { %"struct.std::_Vector_base<std::unique_ptr<LIEF::PE::Symbol>, std::allocator<std::unique_ptr<LIEF::PE::Symbol>>>::_Vector_impl_data" }
%"struct.std::_Vector_base<std::unique_ptr<LIEF::PE::Symbol>, std::allocator<std::unique_ptr<LIEF::PE::Symbol>>>::_Vector_impl_data" = type { ptr, ptr, ptr }
%"class.std::vector.45" = type { %"struct.std::_Vector_base.46" }
%"struct.std::_Vector_base.46" = type { %"struct.std::_Vector_base<LIEF::PE::COFFString, std::allocator<LIEF::PE::COFFString>>::_Vector_impl" }
%"struct.std::_Vector_base<LIEF::PE::COFFString, std::allocator<LIEF::PE::COFFString>>::_Vector_impl" = type { %"struct.std::_Vector_base<LIEF::PE::COFFString, std::allocator<LIEF::PE::COFFString>>::_Vector_impl_data" }
%"struct.std::_Vector_base<LIEF::PE::COFFString, std::allocator<LIEF::PE::COFFString>>::_Vector_impl_data" = type { ptr, ptr, ptr }
%"class.std::vector.50" = type { %"struct.std::_Vector_base.51" }
%"struct.std::_Vector_base.51" = type { %"struct.std::_Vector_base<std::unique_ptr<LIEF::PE::Relocation>, std::allocator<std::unique_ptr<LIEF::PE::Relocation>>>::_Vector_impl" }
%"struct.std::_Vector_base<std::unique_ptr<LIEF::PE::Relocation>, std::allocator<std::unique_ptr<LIEF::PE::Relocation>>>::_Vector_impl" = type { %"struct.std::_Vector_base<std::unique_ptr<LIEF::PE::Relocation>, std::allocator<std::unique_ptr<LIEF::PE::Relocation>>>::_Vector_impl_data" }
%"struct.std::_Vector_base<std::unique_ptr<LIEF::PE::Relocation>, std::allocator<std::unique_ptr<LIEF::PE::Relocation>>>::_Vector_impl_data" = type { ptr, ptr, ptr }
%"class.std::vector.55" = type { %"struct.std::_Vector_base.56" }
%"struct.std::_Vector_base.56" = type { %"struct.std::_Vector_base<LIEF::PE::DelayImport, std::allocator<LIEF::PE::DelayImport>>::_Vector_impl" }
%"struct.std::_Vector_base<LIEF::PE::DelayImport, std::allocator<LIEF::PE::DelayImport>>::_Vector_impl" = type { %"struct.std::_Vector_base<LIEF::PE::DelayImport, std::allocator<LIEF::PE::DelayImport>>::_Vector_impl_data" }
%"struct.std::_Vector_base<LIEF::PE::DelayImport, std::allocator<LIEF::PE::DelayImport>>::_Vector_impl_data" = type { ptr, ptr, ptr }
%"class.std::vector.60" = type { %"struct.std::_Vector_base.61" }
%"struct.std::_Vector_base.61" = type { %"struct.std::_Vector_base<std::unique_ptr<LIEF::PE::Debug>, std::allocator<std::unique_ptr<LIEF::PE::Debug>>>::_Vector_impl" }
%"struct.std::_Vector_base<std::unique_ptr<LIEF::PE::Debug>, std::allocator<std::unique_ptr<LIEF::PE::Debug>>>::_Vector_impl" = type { %"struct.std::_Vector_base<std::unique_ptr<LIEF::PE::Debug>, std::allocator<std::unique_ptr<LIEF::PE::Debug>>>::_Vector_impl_data" }
%"struct.std::_Vector_base<std::unique_ptr<LIEF::PE::Debug>, std::allocator<std::unique_ptr<LIEF::PE::Debug>>>::_Vector_impl_data" = type { ptr, ptr, ptr }
%"class.std::vector.65" = type { %"struct.std::_Vector_base.66" }
%"struct.std::_Vector_base.66" = type { %"struct.std::_Vector_base<std::unique_ptr<LIEF::PE::ExceptionInfo>, std::allocator<std::unique_ptr<LIEF::PE::ExceptionInfo>>>::_Vector_impl" }
%"struct.std::_Vector_base<std::unique_ptr<LIEF::PE::ExceptionInfo>, std::allocator<std::unique_ptr<LIEF::PE::ExceptionInfo>>>::_Vector_impl" = type { %"struct.std::_Vector_base<std::unique_ptr<LIEF::PE::ExceptionInfo>, std::allocator<std::unique_ptr<LIEF::PE::ExceptionInfo>>>::_Vector_impl_data" }
%"struct.std::_Vector_base<std::unique_ptr<LIEF::PE::ExceptionInfo>, std::allocator<std::unique_ptr<LIEF::PE::ExceptionInfo>>>::_Vector_impl_data" = type { ptr, ptr, ptr }
%"class.std::vector.70" = type { %"struct.std::_Vector_base.71" }
%"struct.std::_Vector_base.71" = type { %"struct.std::_Vector_base<unsigned char, std::allocator<unsigned char>>::_Vector_impl" }
%"struct.std::_Vector_base<unsigned char, std::allocator<unsigned char>>::_Vector_impl" = type { %"struct.std::_Vector_base<unsigned char, std::allocator<unsigned char>>::_Vector_impl_data" }
%"struct.std::_Vector_base<unsigned char, std::allocator<unsigned char>>::_Vector_impl_data" = type { ptr, ptr, ptr }
%"class.std::unique_ptr.75" = type { %"struct.std::__uniq_ptr_data.76" }
%"struct.std::__uniq_ptr_data.76" = type { %"class.std::__uniq_ptr_impl.77" }
%"class.std::__uniq_ptr_impl.77" = type { %"class.std::tuple.78" }
%"class.std::tuple.78" = type { %"struct.std::_Tuple_impl.79" }
%"struct.std::_Tuple_impl.79" = type { %"struct.std::_Head_base.82" }
%"struct.std::_Head_base.82" = type { ptr }
%"class.std::unique_ptr.83" = type { %"struct.std::__uniq_ptr_data.84" }
%"struct.std::__uniq_ptr_data.84" = type { %"class.std::__uniq_ptr_impl.85" }
%"class.std::__uniq_ptr_impl.85" = type { %"class.std::tuple.86" }
%"class.std::tuple.86" = type { %"struct.std::_Tuple_impl.87" }
%"struct.std::_Tuple_impl.87" = type { %"struct.std::_Head_base.90" }
%"struct.std::_Head_base.90" = type { ptr }
%"class.std::unique_ptr.91" = type { %"struct.std::__uniq_ptr_data.92" }
%"struct.std::__uniq_ptr_data.92" = type { %"class.std::__uniq_ptr_impl.93" }
%"class.std::__uniq_ptr_impl.93" = type { %"class.std::tuple.94" }
%"class.std::tuple.94" = type { %"struct.std::_Tuple_impl.95" }
%"struct.std::_Tuple_impl.95" = type { %"struct.std::_Head_base.98" }
%"struct.std::_Head_base.98" = type { ptr }
%"class.std::unique_ptr.99" = type { %"struct.std::__uniq_ptr_data.100" }
%"struct.std::__uniq_ptr_data.100" = type { %"class.std::__uniq_ptr_impl.101" }
%"class.std::__uniq_ptr_impl.101" = type { %"class.std::tuple.102" }
%"class.std::tuple.102" = type { %"struct.std::_Tuple_impl.103" }
%"struct.std::_Tuple_impl.103" = type { %"struct.std::_Head_base.106" }
%"struct.std::_Head_base.106" = type { ptr }
%"class.std::unique_ptr.107" = type { %"struct.std::__uniq_ptr_data.108" }
%"struct.std::__uniq_ptr_data.108" = type { %"class.std::__uniq_ptr_impl.109" }
%"class.std::__uniq_ptr_impl.109" = type { %"class.std::tuple.110" }
%"class.std::tuple.110" = type { %"struct.std::_Tuple_impl.111" }
%"struct.std::_Tuple_impl.111" = type { %"struct.std::_Head_base.114" }
%"struct.std::_Head_base.114" = type { ptr }
%"struct.LIEF::PE::Binary::sizing_info_t" = type { i32, i32 }

; Function Attrs: mustprogress nounwind uwtable
define linkonce_odr hidden noundef nonnull align 8 dereferenceable(8) ptr @_ZNSt10_Head_baseILm0EPN4LIEF2PE6BinaryELb0EE7_M_headERKS4_(ptr noundef nonnull align 8 dereferenceable(8) %0) #0 comdat align 2 {
  %2 = alloca ptr, align 8
  store ptr %0, ptr %2, align 8, !tbaa !266
  %3 = load ptr, ptr %2, align 8, !tbaa !266
  %4 = getelementptr inbounds nuw %"struct.std::_Head_base.6", ptr %3, i32 0, i32 0
  ret ptr %4
}

; Function Attrs: mustprogress nounwind uwtable
define linkonce_odr hidden noundef nonnull align 8 dereferenceable(8) ptr @_ZNSt11_Tuple_implILm0EJPN4LIEF2PE6BinaryESt14default_deleteIS2_EEE7_M_headERKS6_(ptr noundef nonnull align 8 dereferenceable(8) %0) #0 comdat align 2 {
  %2 = alloca ptr, align 8
  store ptr %0, ptr %2, align 8, !tbaa !261
  %3 = load ptr, ptr %2, align 8, !tbaa !261
  %4 = call noundef nonnull align 8 dereferenceable(8) ptr @_ZNSt10_Head_baseILm0EPN4LIEF2PE6BinaryELb0EE7_M_headERKS4_(ptr noundef nonnull align 8 dereferenceable(8) %3) #13
  ret ptr %4
}

; Function Attrs: mustprogress nounwind uwtable
define linkonce_odr noundef nonnull align 8 dereferenceable(8) ptr @_ZSt12__get_helperILm0EPN4LIEF2PE6BinaryEJSt14default_deleteIS2_EEERKT0_RKSt11_Tuple_implIXT_EJS6_DpT1_EE(ptr noundef nonnull align 8 dereferenceable(8) %0) #0 comdat {
  %2 = alloca ptr, align 8
  store ptr %0, ptr %2, align 8, !tbaa !261
  %3 = load ptr, ptr %2, align 8, !tbaa !261
  %4 = call noundef nonnull align 8 dereferenceable(8) ptr @_ZNSt11_Tuple_implILm0EJPN4LIEF2PE6BinaryESt14default_deleteIS2_EEE7_M_headERKS6_(ptr noundef nonnull align 8 dereferenceable(8) %3) #13
  ret ptr %4
}

; Function Attrs: mustprogress nounwind uwtable
define linkonce_odr noundef nonnull align 8 dereferenceable(8) ptr @_ZSt3getILm0EJPN4LIEF2PE6BinaryESt14default_deleteIS2_EEERKNSt13tuple_elementIXT_ESt5tupleIJDpT0_EEE4typeERKSA_(ptr noundef nonnull align 8 dereferenceable(8) %0) #0 comdat {
  %2 = alloca ptr, align 8
  store ptr %0, ptr %2, align 8, !tbaa !259
  %3 = load ptr, ptr %2, align 8, !tbaa !259
  %4 = call noundef nonnull align 8 dereferenceable(8) ptr @_ZSt12__get_helperILm0EPN4LIEF2PE6BinaryEJSt14default_deleteIS2_EEERKT0_RKSt11_Tuple_implIXT_EJS6_DpT1_EE(ptr noundef nonnull align 8 dereferenceable(8) %3) #13
  ret ptr %4
}

; Function Attrs: mustprogress nounwind uwtable
define linkonce_odr hidden noundef ptr @_ZNKSt15__uniq_ptr_implIN4LIEF2PE6BinaryESt14default_deleteIS2_EE6_M_ptrEv(ptr noundef nonnull align 8 dereferenceable(8) %0) #0 comdat align 2 {
  %2 = alloca ptr, align 8
  store ptr %0, ptr %2, align 8, !tbaa !257
  %3 = load ptr, ptr %2, align 8
  %4 = getelementptr inbounds nuw %"class.std::__uniq_ptr_impl", ptr %3, i32 0, i32 0
  %5 = call noundef nonnull align 8 dereferenceable(8) ptr @_ZSt3getILm0EJPN4LIEF2PE6BinaryESt14default_deleteIS2_EEERKNSt13tuple_elementIXT_ESt5tupleIJDpT0_EEE4typeERKSA_(ptr noundef nonnull align 8 dereferenceable(8) %4) #13
  %6 = load ptr, ptr %5, align 8, !tbaa !19
  ret ptr %6
}

; Function Attrs: mustprogress nounwind uwtable
define linkonce_odr hidden noundef i32 @_ZNK4LIEF2PE14OptionalHeader14file_alignmentEv(ptr noundef nonnull align 8 dereferenceable(144) %0) #0 comdat align 2 {
  %2 = alloca ptr, align 8
  store ptr %0, ptr %2, align 8, !tbaa !170
  %3 = load ptr, ptr %2, align 8
  %4 = getelementptr inbounds nuw %"class.LIEF::PE::OptionalHeader", ptr %3, i32 0, i32 12
  %5 = load i32, ptr %4, align 4, !tbaa !301
  ret i32 %5
}

; Function Attrs: mustprogress nounwind uwtable
define linkonce_odr hidden noundef nonnull align 8 dereferenceable(144) ptr @_ZN4LIEF2PE6Binary15optional_headerEv(ptr noundef nonnull align 8 dereferenceable(736) %0) #0 comdat align 2 {
  %2 = alloca ptr, align 8
  store ptr %0, ptr %2, align 8, !tbaa !19
  %3 = load ptr, ptr %2, align 8
  %4 = getelementptr inbounds nuw %"class.LIEF::PE::Binary", ptr %3, i32 0, i32 4
  ret ptr %4
}

; Function Attrs: mustprogress nounwind uwtable
define linkonce_odr hidden noundef zeroext i16 @_ZNK4LIEF2PE6Binary4typeEv(ptr noundef nonnull align 8 dereferenceable(736) %0) #0 comdat align 2 {
  %2 = alloca ptr, align 8
  store ptr %0, ptr %2, align 8, !tbaa !19
  %3 = load ptr, ptr %2, align 8
  %4 = getelementptr inbounds nuw %"class.LIEF::PE::Binary", ptr %3, i32 0, i32 1
  %5 = load i16, ptr %4, align 8, !tbaa !31
  ret i16 %5
}

; Function Attrs: mustprogress nounwind uwtable
define linkonce_odr hidden noundef ptr @_ZNKSt10unique_ptrIN4LIEF2PE6BinaryESt14default_deleteIS2_EE3getEv(ptr noundef nonnull align 8 dereferenceable(8) %0) #0 comdat align 2 {
  %2 = alloca ptr, align 8
  store ptr %0, ptr %2, align 8, !tbaa !12
  %3 = load ptr, ptr %2, align 8
  %4 = getelementptr inbounds nuw %"class.std::unique_ptr", ptr %3, i32 0, i32 0
  %5 = call noundef ptr @_ZNKSt15__uniq_ptr_implIN4LIEF2PE6BinaryESt14default_deleteIS2_EE6_M_ptrEv(ptr noundef nonnull align 8 dereferenceable(8) %4) #13
  ret ptr %5
}

; Function Attrs: inlinehint mustprogress nounwind uwtable
define linkonce_odr hidden noundef i64 @_ZN4LIEF5alignEmm(i64 noundef %0, i64 noundef %1) #6 comdat {
  %3 = alloca i64, align 8
  %4 = alloca i64, align 8
  %5 = alloca i64, align 8
  %6 = alloca i64, align 8
  %7 = alloca i32, align 4
  store i64 %0, ptr %4, align 8, !tbaa !159
  store i64 %1, ptr %5, align 8, !tbaa !159
  %8 = load i64, ptr %5, align 8, !tbaa !159
  %9 = icmp eq i64 %8, 0
  br i1 %9, label %10, label %12

10:                                               ; preds = %2
  %11 = load i64, ptr %4, align 8, !tbaa !159
  store i64 %11, ptr %3, align 8
  br label %27

12:                                               ; preds = %2
  call void @llvm.lifetime.start.p0(i64 8, ptr %6) #13
  %13 = load i64, ptr %4, align 8, !tbaa !159
  %14 = load i64, ptr %5, align 8, !tbaa !159
  %15 = urem i64 %13, %14
  store i64 %15, ptr %6, align 8, !tbaa !159
  %16 = load i64, ptr %6, align 8, !tbaa !159
  %17 = icmp ugt i64 %16, 0
  br i1 %17, label %18, label %24

18:                                               ; preds = %12
  %19 = load i64, ptr %4, align 8, !tbaa !159
  %20 = load i64, ptr %5, align 8, !tbaa !159
  %21 = load i64, ptr %6, align 8, !tbaa !159
  %22 = sub i64 %20, %21
  %23 = add i64 %19, %22
  store i64 %23, ptr %3, align 8
  store i32 1, ptr %7, align 4
  br label %26

24:                                               ; preds = %12
  %25 = load i64, ptr %4, align 8, !tbaa !159
  store i64 %25, ptr %3, align 8
  store i32 1, ptr %7, align 4
  br label %26

26:                                               ; preds = %24, %18
  call void @llvm.lifetime.end.p0(i64 8, ptr %6) #13
  br label %27

27:                                               ; preds = %26, %10
  %28 = load i64, ptr %3, align 8
  ret i64 %28
}

; Function Attrs: mustprogress nounwind uwtable
define linkonce_odr hidden noundef i32 @_ZNK4LIEF2PE7Factory10file_alignEv(ptr noundef nonnull align 8 dereferenceable(56) %0) #0 comdat align 2 {
  %2 = alloca ptr, align 8
  store ptr %0, ptr %2, align 8, !tbaa !3
  %3 = load ptr, ptr %2, align 8
  %4 = getelementptr inbounds nuw %"class.LIEF::PE::Factory", ptr %3, i32 0, i32 2
  %5 = call noundef ptr @_ZNKSt10unique_ptrIN4LIEF2PE6BinaryESt14default_deleteIS2_EEptEv(ptr noundef nonnull align 8 dereferenceable(8) %4) #13
  %6 = call noundef nonnull align 8 dereferenceable(144) ptr @_ZN4LIEF2PE6Binary15optional_headerEv(ptr noundef nonnull align 8 dereferenceable(736) %5)
  %7 = call noundef i32 @_ZNK4LIEF2PE14OptionalHeader14file_alignmentEv(ptr noundef nonnull align 8 dereferenceable(144) %6)
  ret i32 %7
}

; Function Attrs: mustprogress nounwind uwtable
define linkonce_odr hidden noundef i64 @_ZNKSt6vectorISt10unique_ptrIN4LIEF2PE7SectionESt14default_deleteIS3_EESaIS6_EE4sizeEv(ptr noundef nonnull align 8 dereferenceable(24) %0) #0 comdat align 2 {
  %2 = alloca ptr, align 8
  store ptr %0, ptr %2, align 8, !tbaa !8
  %3 = load ptr, ptr %2, align 8
  %4 = getelementptr inbounds nuw %"struct.std::_Vector_base", ptr %3, i32 0, i32 0
  %5 = getelementptr inbounds nuw %"struct.std::_Vector_base<std::unique_ptr<LIEF::PE::Section>, std::allocator<std::unique_ptr<LIEF::PE::Section>>>::_Vector_impl_data", ptr %4, i32 0, i32 1
  %6 = load ptr, ptr %5, align 8, !tbaa !28
  %7 = getelementptr inbounds nuw %"struct.std::_Vector_base", ptr %3, i32 0, i32 0
  %8 = getelementptr inbounds nuw %"struct.std::_Vector_base<std::unique_ptr<LIEF::PE::Section>, std::allocator<std::unique_ptr<LIEF::PE::Section>>>::_Vector_impl_data", ptr %7, i32 0, i32 0
  %9 = load ptr, ptr %8, align 8, !tbaa !25
  %10 = ptrtoint ptr %6 to i64
  %11 = ptrtoint ptr %9 to i64
  %12 = sub i64 %10, %11
  %13 = sdiv exact i64 %12, 8
  ret i64 %13
}

; Function Attrs: mustprogress nounwind uwtable
define linkonce_odr hidden noundef i64 @_ZNKSt6vectorISt10unique_ptrIN4LIEF2PE13DataDirectoryESt14default_deleteIS3_EESaIS6_EE4sizeEv(ptr noundef nonnull align 8 dereferenceable(24) %0) #0 comdat align 2 {
  %2 = alloca ptr, align 8
  store ptr %0, ptr %2, align 8, !tbaa !174
  %3 = load ptr, ptr %2, align 8
  %4 = getelementptr inbounds nuw %"struct.std::_Vector_base.36", ptr %3, i32 0, i32 0
  %5 = getelementptr inbounds nuw %"struct.std::_Vector_base<std::unique_ptr<LIEF::PE::DataDirectory>, std::allocator<std::unique_ptr<LIEF::PE::DataDirectory>>>::_Vector_impl_data", ptr %4, i32 0, i32 1
  %6 = load ptr, ptr %5, align 8, !tbaa !178
  %7 = getelementptr inbounds nuw %"struct.std::_Vector_base.36", ptr %3, i32 0, i32 0
  %8 = getelementptr inbounds nuw %"struct.std::_Vector_base<std::unique_ptr<LIEF::PE::DataDirectory>, std::allocator<std::unique_ptr<LIEF::PE::DataDirectory>>>::_Vector_impl_data", ptr %7, i32 0, i32 0
  %9 = load ptr, ptr %8, align 8, !tbaa !177
  %10 = ptrtoint ptr %6 to i64
  %11 = ptrtoint ptr %9 to i64
  %12 = sub i64 %10, %11
  %13 = sdiv exact i64 %12, 8
  ret i64 %13
}

; Function Attrs: mustprogress nounwind uwtable
define linkonce_odr hidden noundef zeroext i1 @_ZNK4LIEF2PE7Factory8is_32bitEv(ptr noundef nonnull align 8 dereferenceable(56) %0) #0 comdat align 2 {
  %2 = alloca ptr, align 8
  store ptr %0, ptr %2, align 8, !tbaa !3
  %3 = load ptr, ptr %2, align 8
  %4 = getelementptr inbounds nuw %"class.LIEF::PE::Factory", ptr %3, i32 0, i32 2
  %5 = call noundef ptr @_ZNKSt10unique_ptrIN4LIEF2PE6BinaryESt14default_deleteIS2_EEptEv(ptr noundef nonnull align 8 dereferenceable(8) %4) #13
  %6 = call noundef zeroext i16 @_ZNK4LIEF2PE6Binary4typeEv(ptr noundef nonnull align 8 dereferenceable(736) %5)
  %7 = icmp eq i16 %6, 267
  ret i1 %7
}

; Function Attrs: mustprogress nounwind uwtable
define linkonce_odr hidden noundef i32 @_ZNK4LIEF2PE9DosHeader23addressof_new_exeheaderEv(ptr noundef nonnull align 8 dereferenceable(72) %0) #0 comdat align 2 {
  %2 = alloca ptr, align 8
  store ptr %0, ptr %2, align 8, !tbaa !166
  %3 = load ptr, ptr %2, align 8
  %4 = getelementptr inbounds nuw %"class.LIEF::PE::DosHeader", ptr %3, i32 0, i32 19
  %5 = load i32, ptr %4, align 4, !tbaa !234
  ret i32 %5
}

; Function Attrs: mustprogress nounwind uwtable
define linkonce_odr hidden noundef nonnull align 8 dereferenceable(72) ptr @_ZN4LIEF2PE6Binary10dos_headerEv(ptr noundef nonnull align 8 dereferenceable(736) %0) #0 comdat align 2 {
  %2 = alloca ptr, align 8
  store ptr %0, ptr %2, align 8, !tbaa !19
  %3 = load ptr, ptr %2, align 8
  %4 = getelementptr inbounds nuw %"class.LIEF::PE::Binary", ptr %3, i32 0, i32 2
  ret ptr %4
}

; Function Attrs: mustprogress nounwind uwtable
define linkonce_odr hidden noundef ptr @_ZNKSt10unique_ptrIN4LIEF2PE6BinaryESt14default_deleteIS2_EEptEv(ptr noundef nonnull align 8 dereferenceable(8) %0) #0 comdat align 2 {
  %2 = alloca ptr, align 8
  store ptr %0, ptr %2, align 8, !tbaa !12
  %3 = load ptr, ptr %2, align 8
  %4 = call noundef ptr @_ZNKSt10unique_ptrIN4LIEF2PE6BinaryESt14default_deleteIS2_EE3getEv(ptr noundef nonnull align 8 dereferenceable(8) %3) #13
  ret ptr %4
}

; Function Attrs: mustprogress nounwind uwtable
define noundef i32 @_ZNK4LIEF2PE7Factory14sizeof_headersEv(ptr noundef nonnull align 8 dereferenceable(56) %0) #0 align 2 {
  %2 = alloca ptr, align 8
  store ptr %0, ptr %2, align 8, !tbaa !3
  %3 = load ptr, ptr %2, align 8
  %4 = getelementptr inbounds nuw %"class.LIEF::PE::Factory", ptr %3, i32 0, i32 2
  %5 = call noundef ptr @_ZNKSt10unique_ptrIN4LIEF2PE6BinaryESt14default_deleteIS2_EEptEv(ptr noundef nonnull align 8 dereferenceable(8) %4) #13
  %6 = call noundef nonnull align 8 dereferenceable(72) ptr @_ZN4LIEF2PE6Binary10dos_headerEv(ptr noundef nonnull align 8 dereferenceable(736) %5)
  %7 = call noundef i32 @_ZNK4LIEF2PE9DosHeader23addressof_new_exeheaderEv(ptr noundef nonnull align 8 dereferenceable(72) %6)
  %8 = zext i32 %7 to i64
  %9 = add i64 %8, 24
  %10 = call noundef zeroext i1 @_ZNK4LIEF2PE7Factory8is_32bitEv(ptr noundef nonnull align 8 dereferenceable(56) %3)
  %11 = select i1 %10, i64 96, i64 112
  %12 = add i64 %9, %11
  %13 = getelementptr inbounds nuw %"class.LIEF::PE::Factory", ptr %3, i32 0, i32 2
  %14 = call noundef ptr @_ZNKSt10unique_ptrIN4LIEF2PE6BinaryESt14default_deleteIS2_EEptEv(ptr noundef nonnull align 8 dereferenceable(8) %13) #13
  %15 = getelementptr inbounds nuw %"class.LIEF::PE::Binary", ptr %14, i32 0, i32 8
  %16 = call noundef i64 @_ZNKSt6vectorISt10unique_ptrIN4LIEF2PE13DataDirectoryESt14default_deleteIS3_EESaIS6_EE4sizeEv(ptr noundef nonnull align 8 dereferenceable(24) %15) #13
  %17 = mul i64 8, %16
  %18 = add i64 %12, %17
  %19 = getelementptr inbounds nuw %"class.LIEF::PE::Factory", ptr %3, i32 0, i32 0
  %20 = call noundef i64 @_ZNKSt6vectorISt10unique_ptrIN4LIEF2PE7SectionESt14default_deleteIS3_EESaIS6_EE4sizeEv(ptr noundef nonnull align 8 dereferenceable(24) %19) #13
  %21 = mul i64 40, %20
  %22 = add i64 %18, %21
  %23 = call noundef i32 @_ZNK4LIEF2PE7Factory10file_alignEv(ptr noundef nonnull align 8 dereferenceable(56) %3)
  %24 = zext i32 %23 to i64
  %25 = call noundef i64 @_ZN4LIEF5alignEmm(i64 noundef %22, i64 noundef %24)
  %26 = trunc i64 %25 to i32
  ret i32 %26
}