; Function Attrs: mustprogress nofree norecurse nosync nounwind willreturn memory(read, inaccessiblemem: none) uwtable
define noundef i32 @_ZNK4LIEF2PE7Factory14sizeof_headersEv(ptr noundef nonnull readonly align 8 captures(none) dereferenceable(56) %0) local_unnamed_addr #10 align 2 {
  %2 = getelementptr inbounds nuw i8, ptr %0, i64 48
  %3 = load ptr, ptr %2, align 8, !tbaa !16
  %4 = getelementptr inbounds nuw i8, ptr %3, i64 164
  %5 = load i32, ptr %4, align 4, !tbaa !226
  %6 = zext i32 %5 to i64
  %7 = getelementptr inbounds nuw i8, ptr %3, i64 88
  %8 = load i16, ptr %7, align 8, !tbaa !27
  %9 = icmp eq i16 %8, 267
  %10 = select i1 %9, i64 96, i64 112
  %11 = getelementptr inbounds nuw i8, ptr %3, i64 408
  %12 = getelementptr inbounds nuw i8, ptr %3, i64 416
  %13 = load ptr, ptr %12, align 8, !tbaa !157
  %14 = load ptr, ptr %11, align 8, !tbaa !156
  %15 = ptrtoint ptr %13 to i64
  %16 = ptrtoint ptr %14 to i64
  %17 = getelementptr inbounds nuw i8, ptr %0, i64 8
  %18 = load ptr, ptr %17, align 8, !tbaa !9
  %19 = load ptr, ptr %0, align 8, !tbaa !3
  %20 = ptrtoint ptr %18 to i64
  %21 = ptrtoint ptr %19 to i64
  %22 = sub i64 %20, %21
  %23 = ashr exact i64 %22, 3
  %24 = mul i64 %23, 40
  %25 = add nuw nsw i64 %6, 24
  %26 = add nuw nsw i64 %25, %10
  %27 = add i64 %26, %15
  %28 = sub i64 %27, %16
  %29 = add i64 %28, %24
  %30 = getelementptr inbounds nuw i8, ptr %3, i64 260
  %31 = load i32, ptr %30, align 4, !tbaa !227
  %32 = icmp eq i32 %31, 0
  br i1 %32, label %_ZN4LIEF5alignEmm.exit, label %33

33:                                               ; preds = %1
  %34 = zext i32 %31 to i64
  %35 = urem i64 %29, %34
  %.not.i = icmp eq i64 %35, 0
  %36 = sub nsw i64 %34, %35
  %37 = select i1 %.not.i, i64 0, i64 %36
  %.1.i = add i64 %37, %29
  br label %_ZN4LIEF5alignEmm.exit

_ZN4LIEF5alignEmm.exit:                           ; preds = %1, %33
  %.0.i = phi i64 [ %.1.i, %33 ], [ %29, %1 ]
  %38 = trunc i64 %.0.i to i32
  ret i32 %38
}